target datalayout = "e-m:e-p270:32:32-p271:32:32-p272:64:64-i64:64-i128:128-f80:128-n8:16:32:64-S128"
target triple = "x86_64-pc-linux-gnu"

%"class.cvc5::internal::NodeTemplate.67" = type { ptr }
%"class.cvc5::internal::theory::Valuation" = type { ptr }
%"class.cvc5::internal::TheoryEngine" = type { %"class.cvc5::internal::EnvObj", ptr, [14 x ptr], %"class.std::shared_ptr", %"class.std::shared_ptr.0", %"class.std::unique_ptr", ptr, ptr, %"class.std::unique_ptr.5", %"class.std::unique_ptr.13", [14 x ptr], %"class.cvc5::context::CDO", %"class.cvc5::context::CDO", %"class.cvc5::context::CDO.21", %"class.cvc5::context::CDO.23", %"class.cvc5::context::CDO", %"class.cvc5::context::CDO.21", %"class.cvc5::context::CDO.23", %"class.cvc5::context::CDHashMap", %"class.cvc5::context::CDO.27", %"class.cvc5::context::CDList", %"class.cvc5::context::CDO.31", i8, i8, %"class.cvc5::internal::AtomRequests", %"class.std::unique_ptr.59", %"class.cvc5::internal::theory::TheoryEngineStatistics", %"class.cvc5::internal::NodeTemplate.67", %"class.cvc5::internal::NodeTemplate.67", i8, %"class.std::queue", i8, [7 x i8], %"class.cvc5::context::CDO", %"class.std::unique_ptr.68", %"class.std::vector.76", %"class.std::unique_ptr.81", %"class.std::vector.89" }
%"class.cvc5::internal::EnvObj" = type { ptr, ptr }
%"class.std::shared_ptr" = type { %"class.std::__shared_ptr" }
%"class.std::__shared_ptr" = type { ptr, %"class.std::__shared_count" }
%"class.std::__shared_count" = type { ptr }
%"class.std::shared_ptr.0" = type { %"class.std::__shared_ptr.1" }
%"class.std::__shared_ptr.1" = type { ptr, %"class.std::__shared_count" }
%"class.std::unique_ptr" = type { %"struct.std::__uniq_ptr_data" }
%"struct.std::__uniq_ptr_data" = type { %"class.std::__uniq_ptr_impl" }
%"class.std::__uniq_ptr_impl" = type { %"class.std::tuple" }
%"class.std::tuple" = type { %"struct.std::_Tuple_impl" }
%"struct.std::_Tuple_impl" = type { %"struct.std::_Head_base.4" }
%"struct.std::_Head_base.4" = type { ptr }
%"class.std::unique_ptr.5" = type { %"struct.std::__uniq_ptr_data.6" }
%"struct.std::__uniq_ptr_data.6" = type { %"class.std::__uniq_ptr_impl.7" }
%"class.std::__uniq_ptr_impl.7" = type { %"class.std::tuple.8" }
%"class.std::tuple.8" = type { %"struct.std::_Tuple_impl.9" }
%"struct.std::_Tuple_impl.9" = type { %"struct.std::_Head_base.12" }
%"struct.std::_Head_base.12" = type { ptr }
%"class.std::unique_ptr.13" = type { %"struct.std::__uniq_ptr_data.14" }
%"struct.std::__uniq_ptr_data.14" = type { %"class.std::__uniq_ptr_impl.15" }
%"class.std::__uniq_ptr_impl.15" = type { %"class.std::tuple.16" }
%"class.std::tuple.16" = type { %"struct.std::_Tuple_impl.17" }
%"struct.std::_Tuple_impl.17" = type { %"struct.std::_Head_base.20" }
%"struct.std::_Head_base.20" = type { ptr }
%"class.cvc5::context::CDO.21" = type <{ %"class.cvc5::context::ContextObj", i32, [4 x i8] }>
%"class.cvc5::context::ContextObj" = type { ptr, ptr, ptr, ptr, ptr }
%"class.cvc5::context::CDO.23" = type <{ %"class.cvc5::context::ContextObj", i32, [4 x i8] }>
%"class.cvc5::context::CDHashMap" = type { %"class.cvc5::context::ContextObj", %"class.std::unordered_map", ptr, ptr }
%"class.std::unordered_map" = type { %"class.std::_Hashtable" }
%"class.std::_Hashtable" = type { [8 x i8], ptr, i64, %"struct.std::__detail::_Hash_node_base", i64, %"struct.std::__detail::_Prime_rehash_policy", ptr }
%"struct.std::__detail::_Hash_node_base" = type { ptr }
%"struct.std::__detail::_Prime_rehash_policy" = type { float, i64 }
%"class.cvc5::context::CDO.27" = type { %"class.cvc5::context::ContextObj", i64 }
%"class.cvc5::context::CDList" = type <{ %"class.cvc5::context::ContextObj", %"class.std::vector", i64, i8, [7 x i8] }>
%"class.std::vector" = type { %"struct.std::_Vector_base" }
%"struct.std::_Vector_base" = type { %"struct.std::_Vector_base<cvc5::internal::NodeTemplate<false>, std::allocator<cvc5::internal::NodeTemplate<false>>>::_Vector_impl" }
%"struct.std::_Vector_base<cvc5::internal::NodeTemplate<false>, std::allocator<cvc5::internal::NodeTemplate<false>>>::_Vector_impl" = type { %"struct.std::_Vector_base<cvc5::internal::NodeTemplate<false>, std::allocator<cvc5::internal::NodeTemplate<false>>>::_Vector_impl_data" }
%"struct.std::_Vector_base<cvc5::internal::NodeTemplate<false>, std::allocator<cvc5::internal::NodeTemplate<false>>>::_Vector_impl_data" = type { ptr, ptr, ptr }
%"class.cvc5::context::CDO.31" = type <{ %"class.cvc5::context::ContextObj", i32, [4 x i8] }>
%"class.cvc5::internal::AtomRequests" = type { %"class.cvc5::context::CDHashSet", %"class.cvc5::context::CDList.33", %"class.cvc5::context::CDHashMap.40" }
%"class.cvc5::context::CDHashSet" = type { %"class.cvc5::context::CDInsertHashMap" }
%"class.cvc5::context::CDInsertHashMap" = type { %"class.cvc5::context::ContextObj", ptr, i64 }
%"class.cvc5::context::CDList.33" = type <{ %"class.cvc5::context::ContextObj", %"class.std::vector.34", i64, i8, [7 x i8] }>
%"class.std::vector.34" = type { %"struct.std::_Vector_base.35" }
%"struct.std::_Vector_base.35" = type { %"struct.std::_Vector_base<cvc5::internal::AtomRequests::Element, std::allocator<cvc5::internal::AtomRequests::Element>>::_Vector_impl" }
%"struct.std::_Vector_base<cvc5::internal::AtomRequests::Element, std::allocator<cvc5::internal::AtomRequests::Element>>::_Vector_impl" = type { %"struct.std::_Vector_base<cvc5::internal::AtomRequests::Element, std::allocator<cvc5::internal::AtomRequests::Element>>::_Vector_impl_data" }
%"struct.std::_Vector_base<cvc5::internal::AtomRequests::Element, std::allocator<cvc5::internal::AtomRequests::Element>>::_Vector_impl_data" = type { ptr, ptr, ptr }
%"class.cvc5::context::CDHashMap.40" = type { %"class.cvc5::context::ContextObj", %"class.std::unordered_map.41", ptr, ptr }
%"class.std::unordered_map.41" = type { %"class.std::_Hashtable.42" }
%"class.std::_Hashtable.42" = type { ptr, i64, %"struct.std::__detail::_Hash_node_base", i64, %"struct.std::__detail::_Prime_rehash_policy", ptr }
%"class.std::unique_ptr.59" = type { %"struct.std::__uniq_ptr_data.60" }
%"struct.std::__uniq_ptr_data.60" = type { %"class.std::__uniq_ptr_impl.61" }
%"class.std::__uniq_ptr_impl.61" = type { %"class.std::tuple.62" }
%"class.std::tuple.62" = type { %"struct.std::_Tuple_impl.63" }
%"struct.std::_Tuple_impl.63" = type { %"struct.std::_Head_base.66" }
%"struct.std::_Head_base.66" = type { ptr }
%"class.cvc5::internal::theory::TheoryEngineStatistics" = type { %"class.cvc5::internal::TimerStat", %"class.cvc5::internal::IntStat", %"class.cvc5::internal::IntStat", %"class.cvc5::internal::IntStat", %"class.cvc5::internal::IntStat" }
%"class.cvc5::internal::TimerStat" = type { ptr }
%"class.cvc5::internal::IntStat" = type { %"class.cvc5::internal::ValueStat" }
%"class.cvc5::internal::ValueStat" = type { ptr }
%"class.std::queue" = type { %"class.std::deque" }
%"class.std::deque" = type { %"class.std::_Deque_base" }
%"class.std::_Deque_base" = type { %"struct.std::_Deque_base<cvc5::internal::NodeTemplate<false>, std::allocator<cvc5::internal::NodeTemplate<false>>>::_Deque_impl" }
%"struct.std::_Deque_base<cvc5::internal::NodeTemplate<false>, std::allocator<cvc5::internal::NodeTemplate<false>>>::_Deque_impl" = type { %"struct.std::_Deque_base<cvc5::internal::NodeTemplate<false>, std::allocator<cvc5::internal::NodeTemplate<false>>>::_Deque_impl_data" }
%"struct.std::_Deque_base<cvc5::internal::NodeTemplate<false>, std::allocator<cvc5::internal::NodeTemplate<false>>>::_Deque_impl_data" = type { ptr, i64, %"struct.std::_Deque_iterator", %"struct.std::_Deque_iterator" }
%"struct.std::_Deque_iterator" = type { ptr, ptr, ptr, ptr }
%"class.cvc5::context::CDO" = type <{ %"class.cvc5::context::ContextObj", i8, [7 x i8] }>
%"class.std::unique_ptr.68" = type { %"struct.std::__uniq_ptr_data.69" }
%"struct.std::__uniq_ptr_data.69" = type { %"class.std::__uniq_ptr_impl.70" }
%"class.std::__uniq_ptr_impl.70" = type { %"class.std::tuple.71" }
%"class.std::tuple.71" = type { %"struct.std::_Tuple_impl.72" }
%"struct.std::_Tuple_impl.72" = type { %"struct.std::_Head_base.75" }
%"struct.std::_Head_base.75" = type { ptr }
%"class.std::vector.76" = type { %"struct.std::_Vector_base.77" }
%"struct.std::_Vector_base.77" = type { %"struct.std::_Vector_base<cvc5::internal::theory::TheoryEngineModule *, std::allocator<cvc5::internal::theory::TheoryEngineModule *>>::_Vector_impl" }
%"struct.std::_Vector_base<cvc5::internal::theory::TheoryEngineModule *, std::allocator<cvc5::internal::theory::TheoryEngineModule *>>::_Vector_impl" = type { %"struct.std::_Vector_base<cvc5::internal::theory::TheoryEngineModule *, std::allocator<cvc5::internal::theory::TheoryEngineModule *>>::_Vector_impl_data" }
%"struct.std::_Vector_base<cvc5::internal::theory::TheoryEngineModule *, std::allocator<cvc5::internal::theory::TheoryEngineModule *>>::_Vector_impl_data" = type { ptr, ptr, ptr }
%"class.std::unique_ptr.81" = type { %"struct.std::__uniq_ptr_data.82" }
%"struct.std::__uniq_ptr_data.82" = type { %"class.std::__uniq_ptr_impl.83" }
%"class.std::__uniq_ptr_impl.83" = type { %"class.std::tuple.84" }
%"class.std::tuple.84" = type { %"struct.std::_Tuple_impl.85" }
%"struct.std::_Tuple_impl.85" = type { %"struct.std::_Head_base.88" }
%"struct.std::_Head_base.88" = type { ptr }
%"class.std::vector.89" = type { %"struct.std::_Vector_base.90" }
%"struct.std::_Vector_base.90" = type { %"struct.std::_Vector_base<std::unique_ptr<cvc5::internal::theory::PluginModule>, std::allocator<std::unique_ptr<cvc5::internal::theory::PluginModule>>>::_Vector_impl" }
%"struct.std::_Vector_base<std::unique_ptr<cvc5::internal::theory::PluginModule>, std::allocator<std::unique_ptr<cvc5::internal::theory::PluginModule>>>::_Vector_impl" = type { %"struct.std::_Vector_base<std::unique_ptr<cvc5::internal::theory::PluginModule>, std::allocator<std::unique_ptr<cvc5::internal::theory::PluginModule>>>::_Vector_impl_data" }
%"struct.std::_Vector_base<std::unique_ptr<cvc5::internal::theory::PluginModule>, std::allocator<std::unique_ptr<cvc5::internal::theory::PluginModule>>>::_Vector_impl_data" = type { ptr, ptr, ptr }

; Function Attrs: mustprogress nounwind uwtable
define linkonce_odr hidden noundef zeroext i1 @_ZNK4cvc58internal12TheoryEngine9needCheckEv(ptr noundef nonnull align 8 dereferenceable(1480) %0) #4 comdat align 2 {
  %2 = alloca ptr, align 8
  store ptr %0, ptr %2, align 8, !tbaa !31
  %3 = load ptr, ptr %2, align 8
  %4 = getelementptr inbounds nuw %"class.cvc5::internal::TheoryEngine", ptr %3, i32 0, i32 23
  %5 = load i8, ptr %4, align 1, !tbaa !178, !range !12, !noundef !13
  %6 = trunc i8 %5 to i1
  br i1 %6, label %11, label %7

7:                                                ; preds = %1
  %8 = getelementptr inbounds nuw %"class.cvc5::internal::TheoryEngine", ptr %3, i32 0, i32 22
  %9 = load i8, ptr %8, align 8, !tbaa !179, !range !12, !noundef !13
  %10 = trunc i8 %9 to i1
  br label %11

11:                                               ; preds = %7, %1
  %12 = phi i1 [ true, %1 ], [ %10, %7 ]
  ret i1 %12
}

; Function Attrs: mustprogress uwtable
define hidden noundef zeroext i1 @_ZNK4cvc58internal6theory9Valuation9needCheckEv(ptr noundef nonnull align 8 dereferenceable(8) %0) #6 align 2 {
  %2 = alloca ptr, align 8
  store ptr %0, ptr %2, align 8, !tbaa !24
  %3 = load ptr, ptr %2, align 8
  %4 = getelementptr inbounds nuw %"class.cvc5::internal::theory::Valuation", ptr %3, i32 0, i32 0
  %5 = load ptr, ptr %4, align 8, !tbaa !28
  %6 = call noundef zeroext i1 @_ZNK4cvc58internal12TheoryEngine9needCheckEv(ptr noundef nonnull align 8 dereferenceable(1480) %5)
  ret i1 %6
}