; Function Attrs: mustprogress nofree norecurse nosync nounwind willreturn memory(read, inaccessiblemem: none) uwtable
define hidden noundef zeroext i1 @_ZNK4cvc58internal6theory9Valuation9needCheckEv(ptr noundef nonnull readonly align 8 captures(none) dereferenceable(8) %0) local_unnamed_addr #9 align 2 {
  %2 = load ptr, ptr %0, align 8, !tbaa !3
  %3 = getelementptr inbounds nuw i8, ptr %2, i64 953
  %4 = load i8, ptr %3, align 1, !tbaa !155, !range !150, !noundef !151
  %5 = trunc nuw i8 %4 to i1
  %6 = getelementptr inbounds nuw i8, ptr %2, i64 952
  %7 = load i8, ptr %6, align 8, !range !150
  %8 = trunc nuw i8 %7 to i1
  %9 = select i1 %5, i1 true, i1 %8
  ret i1 %9
}